; Function Attrs: mustprogress nofree norecurse nosync nounwind willreturn memory(read, argmem: none, inaccessiblemem: none) uwtable
define hidden noundef i64 @_ZN2os30page_size_for_region_unalignedEmm(i64 noundef %0, i64 noundef %1) local_unnamed_addr #18 align 2 {
  %3 = load i8, ptr @UseLargePages, align 1
  %4 = trunc i8 %3 to i1
  br i1 %4, label %5, label %.loopexit.i

5:                                                ; preds = %2
  %6 = udiv i64 %0, %1
  %7 = load i64, ptr @_ZN2os11_page_sizesE, align 8
  %.not.i.i = icmp sgt i64 %7, -1
  br i1 %.not.i.i, label %8, label %.lr.ph.split.i.preheader

8:                                                ; preds = %5
  %9 = icmp eq i64 %7, 0
  %10 = tail call range(i64 0, 65) i64 @llvm.ctlz.i64(i64 %7, i1 true)
  %11 = xor i64 %10, 63
  %12 = shl nuw nsw i64 1, %11
  br i1 %9, label %.loopexit.i, label %.lr.ph.split.i.preheader

.lr.ph.split.i.preheader:                         ; preds = %8, %5
  %.017.i.ph = phi i64 [ %12, %8 ], [ -9223372036854775808, %5 ]
  br label %.lr.ph.split.i

.lr.ph.split.i:                                   ; preds = %.lr.ph.split.i.preheader, %select.unfold.i
  %.017.i = phi i64 [ %18, %select.unfold.i ], [ %.017.i.ph, %.lr.ph.split.i.preheader ]
  %.not12.i = icmp ugt i64 %.017.i, %6
  br i1 %.not12.i, label %select.unfold.i, label %_ZN2os20page_size_for_regionEmmb.exit

select.unfold.i:                                  ; preds = %.lr.ph.split.i
  %13 = add i64 %.017.i, -1
  %14 = and i64 %13, %7
  %15 = icmp eq i64 %14, 0
  %16 = tail call range(i64 0, 65) i64 @llvm.ctlz.i64(i64 %14, i1 true)
  %17 = xor i64 %16, 63
  %18 = shl nuw nsw i64 1, %17
  br i1 %15, label %.loopexit.i, label %.lr.ph.split.i

.loopexit.i:                                      ; preds = %select.unfold.i, %8, %2
  %19 = load i64, ptr @_ZN6OSInfo13_vm_page_sizeE, align 8
  br label %_ZN2os20page_size_for_regionEmmb.exit

_ZN2os20page_size_for_regionEmmb.exit:            ; preds = %.lr.ph.split.i, %.loopexit.i
  %.011.i = phi i64 [ %19, %.loopexit.i ], [ %.017.i, %.lr.ph.split.i ]
  ret i64 %.011.i
}